; Function Attrs: mustprogress uwtable
define internal noundef i32 @_ZL23u_scanf_percent_handlerP5UFILEP17u_scanf_spec_infoP9ufmt_argsPKDsPiS7_(ptr noundef %0, ptr noundef readonly captures(none) %1, ptr noundef readonly captures(none) %2, ptr readnone captures(none) %3, ptr readnone captures(none) %4, ptr noundef writeonly captures(none) %5) #0 {
  %7 = alloca i16, align 2
  %8 = alloca i32, align 4
  %9 = alloca i32, align 4
  call void @llvm.lifetime.start.p0(i64 4, ptr nonnull %8) #6
  store i32 0, ptr %8, align 4, !tbaa !3
  call void @llvm.lifetime.start.p0(i64 4, ptr nonnull %9) #6
  store i32 0, ptr %9, align 4, !tbaa !36
  %10 = getelementptr inbounds nuw i8, ptr %1, i64 6
  %11 = load i16, ptr %10, align 2, !tbaa !16
  call void @llvm.lifetime.start.p0(i64 2, ptr nonnull %7) #6
  br label %.critedge2.i

.critedge2.i:                                     ; preds = %.critedge2.i.backedge, %6
  %12 = call signext i8 @ufile_getch_77(ptr noundef %0, ptr noundef nonnull %7)
  switch i8 %12, label %.critedge.i [
    i8 1, label %13
    i8 0, label %_ZL23u_scanf_skip_leading_wsP5UFILEDs.exit
  ]

13:                                               ; preds = %.critedge2.i
  %14 = load i16, ptr %7, align 2, !tbaa !7
  %15 = icmp eq i16 %14, %11
  br i1 %15, label %.critedge2.i.backedge, label %16

16:                                               ; preds = %13
  %17 = zext i16 %14 to i32
  %18 = call signext i8 @u_isWhitespace_77(i32 noundef %17)
  %.not.i = icmp eq i8 %18, 0
  br i1 %.not.i, label %.critedge.i, label %.critedge2.i.backedge

.critedge2.i.backedge:                            ; preds = %16, %13
  br label %.critedge2.i, !llvm.loop !38

.critedge.i:                                      ; preds = %16, %.critedge2.i
  %19 = load i16, ptr %7, align 2, !tbaa !7
  %20 = zext i16 %19 to i32
  %21 = call i32 @u_fungetc_77(i32 noundef %20, ptr noundef %0)
  br label %_ZL23u_scanf_skip_leading_wsP5UFILEDs.exit

_ZL23u_scanf_skip_leading_wsP5UFILEDs.exit:       ; preds = %.critedge2.i, %.critedge.i
  call void @llvm.lifetime.end.p0(i64 2, ptr nonnull %7) #6
  call void @_Z26ufile_fill_uchar_buffer_77P5UFILE(ptr noundef %0)
  %22 = getelementptr inbounds nuw i8, ptr %0, i64 24
  %23 = getelementptr inbounds nuw i8, ptr %0, i64 32
  %24 = load ptr, ptr %23, align 8, !tbaa !39
  %25 = load ptr, ptr %22, align 8, !tbaa !47
  %26 = load i32, ptr %1, align 4, !tbaa !14
  %27 = getelementptr inbounds nuw i8, ptr %0, i64 48
  %28 = call ptr @u_locbund_getNumberFormat_77(ptr noundef nonnull %27, i32 noundef 3)
  %29 = icmp eq ptr %28, null
  br i1 %29, label %49, label %30

30:                                               ; preds = %_ZL23u_scanf_skip_leading_wsP5UFILEDs.exit
  %.not = icmp eq i32 %26, -1
  %31 = ptrtoint ptr %24 to i64
  %32 = ptrtoint ptr %25 to i64
  %33 = sub i64 %31, %32
  %34 = lshr exact i64 %33, 1
  %35 = trunc i64 %34 to i32
  %. = call i32 @llvm.smin.i32(i32 %26, i32 %35)
  %.023 = select i1 %.not, i32 %35, i32 %.
  %36 = call fastcc noundef i32 @_ZL34u_scanf_skip_leading_positive_signP5UFILEPPvP10UErrorCode(ptr noundef nonnull %0, ptr noundef nonnull %28, i32 0)
  %37 = load ptr, ptr %22, align 8, !tbaa !47
  %38 = call double @unum_parseDouble_77(ptr noundef nonnull %28, ptr noundef %37, i32 noundef %.023, ptr noundef nonnull %8, ptr noundef nonnull %9)
  %39 = getelementptr inbounds nuw i8, ptr %1, i64 8
  %40 = load i8, ptr %39, align 4, !tbaa !19
  %.not27 = icmp eq i8 %40, 0
  br i1 %.not27, label %41, label %43

41:                                               ; preds = %30
  %42 = load ptr, ptr %2, align 8, !tbaa !33
  store double %38, ptr %42, align 8, !tbaa !49
  br label %43

43:                                               ; preds = %41, %30
  %44 = load i32, ptr %8, align 4, !tbaa !3
  %45 = load ptr, ptr %22, align 8, !tbaa !47
  %46 = sext i32 %44 to i64
  %47 = getelementptr inbounds i16, ptr %45, i64 %46
  store ptr %47, ptr %22, align 8, !tbaa !47
  %48 = zext i1 %.not27 to i32
  store i32 %48, ptr %5, align 4, !tbaa !3
  br label %49

49:                                               ; preds = %_ZL23u_scanf_skip_leading_wsP5UFILEDs.exit, %43
  %.0 = phi i32 [ %44, %43 ], [ 0, %_ZL23u_scanf_skip_leading_wsP5UFILEDs.exit ]
  call void @llvm.lifetime.end.p0(i64 4, ptr nonnull %9) #6
  call void @llvm.lifetime.end.p0(i64 4, ptr nonnull %8) #6
  ret i32 %.0
}